; Function Attrs: mustprogress nofree norecurse nosync nounwind willreturn memory(read, inaccessiblemem: none) uwtable
define hidden noundef double @_ZNK10statistics16get_double_valueEj(ptr nocapture noundef nonnull readonly align 8 dereferenceable(16) %this, i32 noundef %idx) local_unnamed_addr #8 align 2 {
entry:
  %0 = load ptr, ptr %this, align 8
  %cmp.i = icmp eq ptr %0, null
  br i1 %cmp.i, label %_ZNK6vectorISt4pairIPKcjELb0EjE4sizeEv.exit, label %if.end.i

if.end.i:                                         ; preds = %entry
  %arrayidx.i = getelementptr inbounds i8, ptr %0, i64 -4
  %1 = load i32, ptr %arrayidx.i, align 4
  br label %_ZNK6vectorISt4pairIPKcjELb0EjE4sizeEv.exit

_ZNK6vectorISt4pairIPKcjELb0EjE4sizeEv.exit:      ; preds = %entry, %if.end.i
  %retval.0.i = phi i32 [ %1, %if.end.i ], [ 0, %entry ]
  %m_d_stats = getelementptr inbounds i8, ptr %this, i64 8
  %sub = sub i32 %idx, %retval.0.i
  %2 = load ptr, ptr %m_d_stats, align 8
  %idxprom.i = zext i32 %sub to i64
  %second = getelementptr inbounds %"struct.std::pair.2", ptr %2, i64 %idxprom.i, i32 1
  %3 = load double, ptr %second, align 8
  ret double %3
}